; ModuleID = '35/842.c'
source_filename = "35/842.c"
target datalayout = "e-m:e-p270:32:32-p271:32:32-p272:64:64-i64:64-f80:128-n8:16:32:64-S128"
target triple = "x86_64-pc-linux-gnu"

@.str = private unnamed_addr constant [6 x i8] c"%d,%d\00", align 1
@.str.1 = private unnamed_addr constant [3 x i8] c"%d\00", align 1
@dat = common dso_local global [9 x [9 x i32]] zeroinitializer, align 16
@num = common dso_local global [2 x [9 x i32]] zeroinitializer, align 16
@.str.2 = private unnamed_addr constant [7 x i8] c"%d+%d\0A\00", align 1
@.str.3 = private unnamed_addr constant [4 x i8] c"No\0A\00", align 1

; Function Attrs: noinline nounwind uwtable
define dso_local i32 @main() #0 {
  %1 = alloca i32, align 4
  %2 = alloca i32, align 4
  %3 = alloca i32, align 4
  %4 = alloca i32, align 4
  %5 = alloca i32, align 4
  %6 = alloca i32, align 4
  store i32 0, i32* %1, align 4
  %7 = call i32 (i8*, ...) @__isoc99_scanf(i8* getelementptr inbounds ([6 x i8], [6 x i8]* @.str, i64 0, i64 0), i32* %2, i32* %3)
  store i32 1, i32* %4, align 4
  br label %8

8:                                                ; preds = %29, %0
  %9 = load i32, i32* %4, align 4
  %10 = load i32, i32* %2, align 4
  %11 = icmp sle i32 %9, %10
  br i1 %11, label %12, label %32

12:                                               ; preds = %8
  store i32 1, i32* %5, align 4
  br label %13

13:                                               ; preds = %25, %12
  %14 = load i32, i32* %5, align 4
  %15 = load i32, i32* %3, align 4
  %16 = icmp sle i32 %14, %15
  br i1 %16, label %17, label %28

17:                                               ; preds = %13
  %18 = load i32, i32* %4, align 4
  %19 = sext i32 %18 to i64
  %20 = getelementptr inbounds [9 x [9 x i32]], [9 x [9 x i32]]* @dat, i64 0, i64 %19
  %21 = load i32, i32* %5, align 4
  %22 = sext i32 %21 to i64
  %23 = getelementptr inbounds [9 x i32], [9 x i32]* %20, i64 0, i64 %22
  %24 = call i32 (i8*, ...) @__isoc99_scanf(i8* getelementptr inbounds ([3 x i8], [3 x i8]* @.str.1, i64 0, i64 0), i32* %23)
  br label %25

25:                                               ; preds = %17
  %26 = load i32, i32* %5, align 4
  %27 = add nsw i32 %26, 1
  store i32 %27, i32* %5, align 4
  br label %13

28:                                               ; preds = %13
  br label %29

29:                                               ; preds = %28
  %30 = load i32, i32* %4, align 4
  %31 = add nsw i32 %30, 1
  store i32 %31, i32* %4, align 4
  br label %8

32:                                               ; preds = %8
  store i32 1, i32* %4, align 4
  br label %33

33:                                               ; preds = %69, %32
  %34 = load i32, i32* %4, align 4
  %35 = load i32, i32* %2, align 4
  %36 = icmp sle i32 %34, %35
  br i1 %36, label %37, label %72

37:                                               ; preds = %33
  store i32 -100000000, i32* %6, align 4
  store i32 1, i32* %5, align 4
  br label %38

38:                                               ; preds = %65, %37
  %39 = load i32, i32* %5, align 4
  %40 = load i32, i32* %3, align 4
  %41 = icmp sle i32 %39, %40
  br i1 %41, label %42, label %68

42:                                               ; preds = %38
  %43 = load i32, i32* %4, align 4
  %44 = sext i32 %43 to i64
  %45 = getelementptr inbounds [9 x [9 x i32]], [9 x [9 x i32]]* @dat, i64 0, i64 %44
  %46 = load i32, i32* %5, align 4
  %47 = sext i32 %46 to i64
  %48 = getelementptr inbounds [9 x i32], [9 x i32]* %45, i64 0, i64 %47
  %49 = load i32, i32* %48, align 4
  %50 = load i32, i32* %6, align 4
  %51 = icmp sgt i32 %49, %50
  br i1 %51, label %52, label %64

52:                                               ; preds = %42
  %53 = load i32, i32* %4, align 4
  %54 = sext i32 %53 to i64
  %55 = getelementptr inbounds [9 x [9 x i32]], [9 x [9 x i32]]* @dat, i64 0, i64 %54
  %56 = load i32, i32* %5, align 4
  %57 = sext i32 %56 to i64
  %58 = getelementptr inbounds [9 x i32], [9 x i32]* %55, i64 0, i64 %57
  %59 = load i32, i32* %58, align 4
  store i32 %59, i32* %6, align 4
  %60 = load i32, i32* %5, align 4
  %61 = load i32, i32* %4, align 4
  %62 = sext i32 %61 to i64
  %63 = getelementptr inbounds [9 x i32], [9 x i32]* getelementptr inbounds ([2 x [9 x i32]], [2 x [9 x i32]]* @num, i64 0, i64 0), i64 0, i64 %62
  store i32 %60, i32* %63, align 4
  br label %64

64:                                               ; preds = %52, %42
  br label %65

65:                                               ; preds = %64
  %66 = load i32, i32* %5, align 4
  %67 = add nsw i32 %66, 1
  store i32 %67, i32* %5, align 4
  br label %38

68:                                               ; preds = %38
  br label %69

69:                                               ; preds = %68
  %70 = load i32, i32* %4, align 4
  %71 = add nsw i32 %70, 1
  store i32 %71, i32* %4, align 4
  br label %33

72:                                               ; preds = %33
  store i32 1, i32* %4, align 4
  br label %73

73:                                               ; preds = %109, %72
  %74 = load i32, i32* %4, align 4
  %75 = load i32, i32* %3, align 4
  %76 = icmp sle i32 %74, %75
  br i1 %76, label %77, label %112

77:                                               ; preds = %73
  store i32 100000000, i32* %6, align 4
  store i32 1, i32* %5, align 4
  br label %78

78:                                               ; preds = %105, %77
  %79 = load i32, i32* %5, align 4
  %80 = load i32, i32* %2, align 4
  %81 = icmp sle i32 %79, %80
  br i1 %81, label %82, label %108

82:                                               ; preds = %78
  %83 = load i32, i32* %5, align 4
  %84 = sext i32 %83 to i64
  %85 = getelementptr inbounds [9 x [9 x i32]], [9 x [9 x i32]]* @dat, i64 0, i64 %84
  %86 = load i32, i32* %4, align 4
  %87 = sext i32 %86 to i64
  %88 = getelementptr inbounds [9 x i32], [9 x i32]* %85, i64 0, i64 %87
  %89 = load i32, i32* %88, align 4
  %90 = load i32, i32* %6, align 4
  %91 = icmp slt i32 %89, %90
  br i1 %91, label %92, label %104

92:                                               ; preds = %82
  %93 = load i32, i32* %5, align 4
  %94 = sext i32 %93 to i64
  %95 = getelementptr inbounds [9 x [9 x i32]], [9 x [9 x i32]]* @dat, i64 0, i64 %94
  %96 = load i32, i32* %4, align 4
  %97 = sext i32 %96 to i64
  %98 = getelementptr inbounds [9 x i32], [9 x i32]* %95, i64 0, i64 %97
  %99 = load i32, i32* %98, align 4
  store i32 %99, i32* %6, align 4
  %100 = load i32, i32* %5, align 4
  %101 = load i32, i32* %4, align 4
  %102 = sext i32 %101 to i64
  %103 = getelementptr inbounds [9 x i32], [9 x i32]* getelementptr inbounds ([2 x [9 x i32]], [2 x [9 x i32]]* @num, i64 0, i64 1), i64 0, i64 %102
  store i32 %100, i32* %103, align 4
  br label %104

104:                                              ; preds = %92, %82
  br label %105

105:                                              ; preds = %104
  %106 = load i32, i32* %5, align 4
  %107 = add nsw i32 %106, 1
  store i32 %107, i32* %5, align 4
  br label %78

108:                                              ; preds = %78
  br label %109

109:                                              ; preds = %108
  %110 = load i32, i32* %4, align 4
  %111 = add nsw i32 %110, 1
  store i32 %111, i32* %4, align 4
  br label %73

112:                                              ; preds = %73
  store i32 1, i32* %4, align 4
  br label %113

113:                                              ; preds = %137, %112
  %114 = load i32, i32* %4, align 4
  %115 = load i32, i32* %2, align 4
  %116 = icmp sle i32 %114, %115
  br i1 %116, label %117, label %140

117:                                              ; preds = %113
  %118 = load i32, i32* %4, align 4
  %119 = sext i32 %118 to i64
  %120 = getelementptr inbounds [9 x i32], [9 x i32]* getelementptr inbounds ([2 x [9 x i32]], [2 x [9 x i32]]* @num, i64 0, i64 0), i64 0, i64 %119
  %121 = load i32, i32* %120, align 4
  %122 = sext i32 %121 to i64
  %123 = getelementptr inbounds [9 x i32], [9 x i32]* getelementptr inbounds ([2 x [9 x i32]], [2 x [9 x i32]]* @num, i64 0, i64 1), i64 0, i64 %122
  %124 = load i32, i32* %123, align 4
  %125 = load i32, i32* %4, align 4
  %126 = icmp eq i32 %124, %125
  br i1 %126, label %127, label %136

127:                                              ; preds = %117
  %128 = load i32, i32* %4, align 4
  %129 = sub nsw i32 %128, 1
  %130 = load i32, i32* %4, align 4
  %131 = sext i32 %130 to i64
  %132 = getelementptr inbounds [9 x i32], [9 x i32]* getelementptr inbounds ([2 x [9 x i32]], [2 x [9 x i32]]* @num, i64 0, i64 0), i64 0, i64 %131
  %133 = load i32, i32* %132, align 4
  %134 = sub nsw i32 %133, 1
  %135 = call i32 (i8*, ...) @printf(i8* getelementptr inbounds ([7 x i8], [7 x i8]* @.str.2, i64 0, i64 0), i32 %129, i32 %134)
  br label %140

136:                                              ; preds = %117
  br label %137

137:                                              ; preds = %136
  %138 = load i32, i32* %4, align 4
  %139 = add nsw i32 %138, 1
  store i32 %139, i32* %4, align 4
  br label %113

140:                                              ; preds = %127, %113
  %141 = load i32, i32* %4, align 4
  %142 = load i32, i32* %2, align 4
  %143 = add nsw i32 %142, 1
  %144 = icmp eq i32 %141, %143
  br i1 %144, label %145, label %147

145:                                              ; preds = %140
  %146 = call i32 (i8*, ...) @printf(i8* getelementptr inbounds ([4 x i8], [4 x i8]* @.str.3, i64 0, i64 0))
  br label %147

147:                                              ; preds = %145, %140
  ret i32 0
}

declare dso_local i32 @__isoc99_scanf(i8*, ...) #1

declare dso_local i32 @printf(i8*, ...) #1


!llvm.module.flags = !{!0}
!llvm.ident = !{!1}

!0 = !{i32 1, !"wchar_size", i32 4}
!1 = !{!"clang version 10.0.0-4ubuntu1 "}
